; ModuleID = 'source-C-CXX/59/609.c'
source_filename = "source-C-CXX/59/609.c"
target datalayout = "e-m:e-p270:32:32-p271:32:32-p272:64:64-i64:64-f80:128-n8:16:32:64-S128"
target triple = "x86_64-pc-linux-gnu"

%struct._IO_FILE = type { i32, i8*, i8*, i8*, i8*, i8*, i8*, i8*, i8*, i8*, i8*, i8*, %struct._IO_marker*, %struct._IO_FILE*, i32, i32, i64, i16, i8, [1 x i8], i8*, i64, %struct._IO_codecvt*, %struct._IO_wide_data*, %struct._IO_FILE*, i8*, i64, i32, [20 x i8] }
%struct._IO_marker = type opaque
%struct._IO_codecvt = type opaque
%struct._IO_wide_data = type opaque

@.str = private unnamed_addr constant [3 x i8] c"%d\00", align 1
@.str.1 = private unnamed_addr constant [7 x i8] c"%d %d\0A\00", align 1
@.str.2 = private unnamed_addr constant [6 x i8] c"empty\00", align 1
@stdin = external local_unnamed_addr global %struct._IO_FILE*, align 8

; Function Attrs: nofree nounwind sspstrong uwtable
define dso_local i32 @main() local_unnamed_addr #0 {
  %1 = alloca i32, align 4
  %2 = bitcast i32* %1 to i8*
  call void @llvm.lifetime.start.p0i8(i64 4, i8* nonnull %2) #4
  %3 = call i32 (i8*, ...) @__isoc99_scanf(i8* getelementptr inbounds ([3 x i8], [3 x i8]* @.str, i64 0, i64 0), i32* nonnull %1)
  %4 = load i32, i32* %1, align 4, !tbaa !5
  %5 = icmp slt i32 %4, 3
  br i1 %5, label %43, label %6

6:                                                ; preds = %0, %36
  %7 = phi i32 [ %29, %36 ], [ 0, %0 ]
  %8 = phi i32 [ %37, %36 ], [ 0, %0 ]
  %9 = phi i32 [ %38, %36 ], [ 3, %0 ]
  %10 = sitofp i32 %9 to double
  %11 = call double @sqrt(double %10) #4
  %12 = fptosi double %11 to i32
  %13 = icmp slt i32 %12, 2
  br i1 %13, label %23, label %14

14:                                               ; preds = %6, %18
  %15 = phi i32 [ %19, %18 ], [ 2, %6 ]
  %16 = urem i32 %9, %15
  %17 = icmp eq i32 %16, 0
  br i1 %17, label %23, label %18

18:                                               ; preds = %14
  %19 = add nuw nsw i32 %15, 1
  %20 = call double @sqrt(double %10) #4
  %21 = fptosi double %20 to i32
  %22 = icmp slt i32 %15, %21
  br i1 %22, label %14, label %23, !llvm.loop !9

23:                                               ; preds = %18, %14, %6
  %24 = phi i32 [ 2, %6 ], [ %15, %14 ], [ %19, %18 ]
  %25 = call double @sqrt(double %10) #4
  %26 = fptosi double %25 to i32
  %27 = add nsw i32 %26, 1
  %28 = icmp eq i32 %24, %27
  %29 = zext i1 %28 to i32
  %30 = icmp eq i32 %7, 1
  %31 = and i1 %30, %28
  br i1 %31, label %32, label %36

32:                                               ; preds = %23
  %33 = add nsw i32 %9, -2
  %34 = call i32 (i8*, ...) @printf(i8* nonnull dereferenceable(1) getelementptr inbounds ([7 x i8], [7 x i8]* @.str.1, i64 0, i64 0), i32 %33, i32 %9)
  %35 = add nsw i32 %8, 1
  br label %36

36:                                               ; preds = %32, %23
  %37 = phi i32 [ %35, %32 ], [ %8, %23 ]
  %38 = add nuw nsw i32 %9, 2
  %39 = load i32, i32* %1, align 4, !tbaa !5
  %40 = icmp sgt i32 %38, %39
  br i1 %40, label %41, label %6, !llvm.loop !11

41:                                               ; preds = %36
  %42 = icmp eq i32 %37, 0
  br i1 %42, label %43, label %45

43:                                               ; preds = %0, %41
  %44 = call i32 (i8*, ...) @printf(i8* nonnull dereferenceable(1) getelementptr inbounds ([6 x i8], [6 x i8]* @.str.2, i64 0, i64 0))
  br label %45

45:                                               ; preds = %43, %41
  %46 = load %struct._IO_FILE*, %struct._IO_FILE** @stdin, align 8, !tbaa !12
  %47 = call i32 @getc(%struct._IO_FILE* %46) #4
  %48 = load %struct._IO_FILE*, %struct._IO_FILE** @stdin, align 8, !tbaa !12
  %49 = call i32 @getc(%struct._IO_FILE* %48) #4
  %50 = load %struct._IO_FILE*, %struct._IO_FILE** @stdin, align 8, !tbaa !12
  %51 = call i32 @getc(%struct._IO_FILE* %50) #4
  %52 = load %struct._IO_FILE*, %struct._IO_FILE** @stdin, align 8, !tbaa !12
  %53 = call i32 @getc(%struct._IO_FILE* %52) #4
  call void @llvm.lifetime.end.p0i8(i64 4, i8* nonnull %2) #4
  ret i32 0
}

; Function Attrs: argmemonly mustprogress nofree nosync nounwind willreturn
declare void @llvm.lifetime.start.p0i8(i64 immarg, i8* nocapture) #1

; Function Attrs: nofree nounwind
declare noundef i32 @__isoc99_scanf(i8* nocapture noundef readonly, ...) local_unnamed_addr #2

; Function Attrs: mustprogress nofree nounwind willreturn
declare double @sqrt(double) local_unnamed_addr #3

; Function Attrs: nofree nounwind
declare noundef i32 @printf(i8* nocapture noundef readonly, ...) local_unnamed_addr #2

; Function Attrs: argmemonly mustprogress nofree nosync nounwind willreturn
declare void @llvm.lifetime.end.p0i8(i64 immarg, i8* nocapture) #1

; Function Attrs: nofree nounwind
declare noundef i32 @getc(%struct._IO_FILE* nocapture noundef) local_unnamed_addr #2


!llvm.module.flags = !{!0, !1, !2, !3}
!llvm.ident = !{!4}

!0 = !{i32 1, !"wchar_size", i32 4}
!1 = !{i32 7, !"PIC Level", i32 2}
!2 = !{i32 7, !"PIE Level", i32 2}
!3 = !{i32 7, !"uwtable", i32 1}
!4 = !{!"clang version 13.0.0"}
!5 = !{!6, !6, i64 0}
!6 = !{!"int", !7, i64 0}
!7 = !{!"omnipotent char", !8, i64 0}
!8 = !{!"Simple C/C++ TBAA"}
!9 = distinct !{!9, !10}
!10 = !{!"llvm.loop.mustprogress"}
!11 = distinct !{!11, !10}
!12 = !{!13, !13, i64 0}
!13 = !{!"any pointer", !7, i64 0}
